Certificate:
    Data:
        Version: 3 (0x2)
        Serial Number:
            40:04:40:b2:0b:58:aa:02:e6:2a:43:55:55:f3:60:aa:6c:88:f8:06
        Signature Algorithm: sha256WithRSAEncryption
        Issuer: C = DE, ST = Bayern, L = Muenchen, O = Whatever it is, CN = server.local
        Validity
            Not Before: Sep 19 19:19:44 2018 GMT
            Not After : May 28 19:19:44 2032 GMT
        Subject: C = DE, ST = Bayern, L = Muenchen, O = Whatever it is, CN = server.local
        Subject Public Key Info:
            Public Key Algorithm: rsaEncryption
                RSA Public-Key: (4096 bit)
                Modulus:
                    00:bf:79:e7:df:7a:17:f0:a0:1b:aa:ef:81:4e:1b:
                    7a:19:cb:43:4c:8e:70:86:38:2d:3c:cc:6b:9e:aa:
                    2d:01:3d:cd:70:7b:a1:6b:dc:56:9d:75:e5:a2:a3:
                    03:95:45:99:f9:0b:ee:e5:78:7d:a8:0f:76:92:0d:
                    31:97:ec:68:2a:51:d9:25:4b:60:0f:3f:73:26:fc:
                    2d:8a:fa:cb:0f:f5:aa:96:7c:e1:5b:06:1b:f7:b2:
                    aa:2f:56:92:19:6a:eb:b1:3c:6d:af:c0:c2:7c:ed:
                    48:07:25:9e:c3:fe:61:7b:d9:f4:ba:4e:21:d9:99:
                    6a:d3:1f:cc:b2:62:14:0a:b0:45:76:55:49:96:38:
                    6f:eb:6d:e0:13:d4:34:fa:f6:43:8f:5b:7e:52:27:
                    c2:02:09:d3:92:9e:e8:c9:7f:f7:d0:19:92:9d:74:
                    a2:86:25:39:a1:a5:81:5e:2b:dc:d0:10:db:ba:fb:
                    3f:78:5c:91:d9:81:33:10:5c:e9:47:f2:12:fd:a9:
                    46:0a:e2:4c:48:aa:86:34:71:69:36:6f:5e:d9:9b:
                    99:3e:bf:ab:74:fc:00:72:3a:70:52:0c:cf:1f:81:
                    83:86:4d:a4:93:be:1f:25:a8:5b:3e:39:ae:a0:01:
                    ee:e5:07:92:51:7a:3a:f0:29:1a:aa:d1:9c:39:8d:
                    32:7e:9a:47:6b:cc:03:c8:05:80:6f:2a:4e:82:36:
                    29:08:f3:ea:57:5b:79:5b:84:86:e7:b7:f9:d3:82:
                    48:11:28:58:92:27:92:ff:cd:4f:10:dc:1d:e0:cc:
                    8f:58:4b:1e:a8:26:aa:19:33:32:c6:b6:7c:75:84:
                    c2:ea:d9:6e:fb:98:1f:b0:65:b2:c9:8d:1d:25:ae:
                    57:d8:6a:05:d4:cc:e8:e7:23:01:f4:75:be:4a:c2:
                    e3:7d:1b:c1:16:75:ef:b7:6a:c3:7d:d9:17:cf:a0:
                    f4:9c:e4:c0:46:d4:a6:40:f6:80:f3:7f:08:48:8e:
                    56:ea:cb:09:1d:d4:ea:46:71:96:91:70:c7:de:2e:
                    43:65:38:d8:5c:13:30:ab:d2:48:57:b3:46:26:8c:
                    98:73:fb:0d:d1:5b:13:ed:e4:46:bb:bd:ad:4e:1c:
                    70:d2:e9:ff:48:5c:bf:3b:39:e2:91:4d:23:e3:04:
                    93:21:ed:fd:a5:31:b2:97:49:69:99:46:92:c8:f5:
                    47:e8:13:60:77:39:a9:30:38:2a:39:90:58:c3:2e:
                    fa:2d:8c:07:ab:61:58:d8:98:45:91:ed:34:b8:af:
                    ea:74:a6:e4:20:5b:ca:9d:87:61:6a:cb:1d:83:47:
                    24:cb:da:6b:95:26:5a:48:67:79:0d:39:a2:e7:23:
                    c4:ec:d5
                Exponent: 65537 (0x10001)
        X509v3 extensions:
            X509v3 Subject Key Identifier: 
                D8:7F:66:46:16:CB:4B:C0:A9:06:55:8D:E2:18:14:69:5F:94:0F:2B
            X509v3 Authority Key Identifier: 
                keyid:D8:7F:66:46:16:CB:4B:C0:A9:06:55:8D:E2:18:14:69:5F:94:0F:2B

            X509v3 Basic Constraints: critical
                CA:TRUE
    Signature Algorithm: sha256WithRSAEncryption
         0d:5b:40:18:ea:ea:10:4e:29:35:ce:83:bd:ac:ac:fe:76:8e:
         cf:ba:18:72:ca:f2:87:01:8f:84:83:41:a1:9e:5b:4a:e0:81:
         e6:bc:02:8f:91:04:ad:ad:56:33:cb:e3:33:83:ee:9e:ee:c0:
         4a:53:c0:83:7f:2c:ec:25:40:ad:ec:1c:1d:32:7d:9b:c8:4e:
         d7:e8:80:63:64:3c:33:37:b4:ae:04:47:83:60:24:e8:57:23:
         54:a9:37:0d:3e:10:53:f0:57:50:19:a9:5c:9c:d5:80:8f:73:
         3e:f1:1d:7f:6a:a2:cf:99:71:d9:7b:7c:ce:72:56:26:89:fd:
         32:41:23:b4:52:b2:a0:7a:aa:1f:ef:a2:92:cd:d3:92:57:d5:
         c6:0c:01:05:c5:b7:8f:6a:fb:a9:09:7d:63:81:65:29:3f:26:
         95:65:d4:ed:0c:c8:4e:e4:bd:40:87:7a:0f:73:32:88:74:f8:
         75:80:79:94:e4:27:01:c3:1c:2c:94:35:35:23:77:00:ab:e7:
         6f:2c:0b:60:5e:e1:41:a0:b0:01:71:2f:ca:9d:63:43:4d:e7:
         42:09:e8:05:b4:86:e7:db:23:f0:16:e9:3d:a2:ff:0b:af:b3:
         71:21:51:ad:74:52:a8:51:af:b5:47:c3:52:2e:eb:75:9f:12:
         6c:05:75:5c:6b:8a:0e:47:36:b6:4d:f4:3b:c4:52:51:c1:cb:
         29:66:26:1f:6d:cb:a1:e1:79:c0:b3:ef:95:5b:7d:ce:5e:ea:
         ed:e6:4f:50:08:f3:29:41:e8:6c:f7:88:97:e4:1f:e8:c4:56:
         3b:1d:76:16:35:3b:a7:49:3a:79:46:6d:ad:21:94:25:fb:d7:
         d7:8f:50:23:2c:15:17:af:bf:3e:9c:4b:65:fe:ff:c3:d7:e8:
         fa:8e:39:05:53:5f:02:2f:99:19:2b:9b:63:7e:6f:12:67:f7:
         97:80:0d:7e:4d:9b:e7:89:6b:79:9c:d6:28:5b:7d:d5:10:1a:
         2b:20:1c:da:be:a0:7f:59:28:6a:2b:6a:7b:08:c3:ca:82:88:
         90:08:43:c9:0d:75:10:be:92:6f:a4:8a:4b:08:e8:e1:c7:1e:
         fa:b9:4f:ce:32:5a:28:34:5b:4c:bc:39:db:00:96:b6:4f:f3:
         33:ad:11:3c:12:56:1b:e7:ca:96:75:2b:e8:47:72:6f:1d:60:
         74:2d:6d:87:64:5f:9b:e5:21:ba:4b:ff:d3:21:dd:c4:08:6c:
         cd:f9:c7:8e:30:6c:74:21:79:ef:c2:7c:db:30:ec:ef:d2:ff:
         86:e4:c4:3c:5c:5b:dc:26:7d:c8:a7:0a:35:18:22:f5:8c:93:
         be:19:51:eb:56:05:d5:f3
-----BEGIN CERTIFICATE-----
MIIFozCCA4ugAwIBAgIUQARAsgtYqgLmKkNVVfNgqmyI+AYwDQYJKoZIhvcNAQEL
BQAwYTELMAkGA1UEBhMCREUxDzANBgNVBAgMBkJheWVybjERMA8GA1UEBwwITXVl
bmNoZW4xFzAVBgNVBAoMDldoYXRldmVyIGl0IGlzMRUwEwYDVQQDDAxzZXJ2ZXIu
bG9jYWwwHhcNMTgwOTE5MTkxOTQ0WhcNMzIwNTI4MTkxOTQ0WjBhMQswCQYDVQQG
EwJERTEPMA0GA1UECAwGQmF5ZXJuMREwDwYDVQQHDAhNdWVuY2hlbjEXMBUGA1UE
CgwOV2hhdGV2ZXIgaXQgaXMxFTATBgNVBAMMDHNlcnZlci5sb2NhbDCCAiIwDQYJ
KoZIhvcNAQEBBQADggIPADCCAgoCggIBAL955996F/CgG6rvgU4behnLQ0yOcIY4
LTzMa56qLQE9zXB7oWvcVp115aKjA5VFmfkL7uV4fagPdpINMZfsaCpR2SVLYA8/
cyb8LYr6yw/1qpZ84VsGG/eyqi9Wkhlq67E8ba/AwnztSAclnsP+YXvZ9LpOIdmZ
atMfzLJiFAqwRXZVSZY4b+tt4BPUNPr2Q49bflInwgIJ05Ke6Ml/99AZkp10ooYl
OaGlgV4r3NAQ27r7P3hckdmBMxBc6UfyEv2pRgriTEiqhjRxaTZvXtmbmT6/q3T8
AHI6cFIMzx+Bg4ZNpJO+HyWoWz45rqAB7uUHklF6OvApGqrRnDmNMn6aR2vMA8gF
gG8qToI2KQjz6ldbeVuEhue3+dOCSBEoWJInkv/NTxDcHeDMj1hLHqgmqhkzMsa2
fHWEwurZbvuYH7BlssmNHSWuV9hqBdTM6OcjAfR1vkrC430bwRZ177dqw33ZF8+g
9JzkwEbUpkD2gPN/CEiOVurLCR3U6kZxlpFwx94uQ2U42FwTMKvSSFezRiaMmHP7
DdFbE+3kRru9rU4ccNLp/0hcvzs54pFNI+MEkyHt/aUxspdJaZlGksj1R+gTYHc5
qTA4KjmQWMMu+i2MB6thWNiYRZHtNLiv6nSm5CBbyp2HYWrLHYNHJMvaa5UmWkhn
eQ05oucjxOzVAgMBAAGjUzBRMB0GA1UdDgQWBBTYf2ZGFstLwKkGVY3iGBRpX5QP
KzAfBgNVHSMEGDAWgBTYf2ZGFstLwKkGVY3iGBRpX5QPKzAPBgNVHRMBAf8EBTAD
AQH/MA0GCSqGSIb3DQEBCwUAA4ICAQANW0AY6uoQTik1zoO9rKz+do7PuhhyyvKH
AY+Eg0GhnltK4IHmvAKPkQStrVYzy+Mzg+6e7sBKU8CDfyzsJUCt7BwdMn2byE7X
6IBjZDwzN7SuBEeDYCToVyNUqTcNPhBT8FdQGalcnNWAj3M+8R1/aqLPmXHZe3zO
clYmif0yQSO0UrKgeqof76KSzdOSV9XGDAEFxbePavupCX1jgWUpPyaVZdTtDMhO
5L1Ah3oPczKIdPh1gHmU5CcBwxwslDU1I3cAq+dvLAtgXuFBoLABcS/KnWNDTedC
CegFtIbn2yPwFuk9ov8Lr7NxIVGtdFKoUa+1R8NSLut1nxJsBXVca4oORza2TfQ7
xFJRwcspZiYfbcuh4XnAs++VW33OXurt5k9QCPMpQehs94iX5B/oxFY7HXYWNTun
STp5Rm2tIZQl+9fXj1AjLBUXr78+nEtl/v/D1+j6jjkFU18CL5kZK5tjfm8SZ/eX
gA1+TZvniWt5nNYoW33VEBorIBzavqB/WShqK2p7CMPKgoiQCEPJDXUQvpJvpIpL
COjhxx76uU/OMlooNFtMvDnbAJa2T/MzrRE8ElYb58qWdSvoR3JvHWB0LW2HZF+b
5SG6S//TId3ECGzN+ceOMGx0IXnvwnzbMOzv0v+G5MQ8XFvcJn3Ipwo1GCL1jJO+
GVHrVgXV8w==
-----END CERTIFICATE-----
